; Function Attrs: nofree norecurse nosync nounwind memory(argmem: read) uwtable
define dso_local range(i64 -63, -9223372036854775808) i64 @bit_fls_from_bit(ptr noundef readonly captures(none) %0, i64 noundef %1) #3 {
  %3 = getelementptr inbounds nuw i8, ptr %0, i64 8
  %4 = load i64, ptr %3, align 8
  %5 = icmp eq i64 %4, 0
  br i1 %5, label %.loopexit, label %.preheader

.preheader:                                       ; preds = %2
  %invariant.gep = getelementptr inbounds nuw i8, ptr %0, i64 16
  %6 = icmp sgt i64 %1, -1
  br i1 %6, label %.lr.ph, label %.loopexit

.lr.ph:                                           ; preds = %.preheader, %16
  %.02025 = phi i64 [ %17, %16 ], [ %1, %.preheader ]
  %7 = lshr i64 %.02025, 6
  %8 = add nuw nsw i64 %.02025, 1
  %9 = lshr i64 %8, 6
  %10 = icmp eq i64 %7, %9
  br i1 %10, label %11, label %.lr.ph33

11:                                               ; preds = %.lr.ph
  %gep = getelementptr inbounds nuw i64, ptr %invariant.gep, i64 %7
  %12 = load i64, ptr %gep, align 8
  %13 = and i64 %.02025, 63
  %14 = shl nuw i64 1, %13
  %15 = and i64 %12, %14
  %.not = icmp eq i64 %15, 0
  br i1 %.not, label %16, label %.loopexit

16:                                               ; preds = %11
  %17 = add nsw i64 %.02025, -1
  %18 = icmp sgt i64 %.02025, 0
  br i1 %18, label %.lr.ph, label %.loopexit, !llvm.loop !32

.lr.ph33:                                         ; preds = %.lr.ph, %.outer
  %.121.ph39 = phi i64 [ %27, %.outer ], [ %.02025, %.lr.ph ]
  %19 = shl i64 %.121.ph39, 26
  %sext = add i64 %19, 8589934592
  %20 = ashr i64 %sext, 32
  %21 = getelementptr inbounds i64, ptr %0, i64 %20
  %22 = load i64, ptr %21, align 8
  %23 = icmp eq i64 %22, 0
  br i1 %23, label %.outer, label %.lr.ph33.split

.lr.ph33.split:                                   ; preds = %.lr.ph33
  %24 = tail call range(i64 0, 65) i64 @llvm.ctlz.i64(i64 %22, i1 true)
  %25 = sub nsw i64 %.121.ph39, %24
  %26 = icmp eq i64 %25, -1
  br i1 %26, label %.lr.ph33.split.split, label %.loopexit, !llvm.loop !33

.lr.ph33.split.split:                             ; preds = %.lr.ph33.split, %.lr.ph33.split.split
  br label %.lr.ph33.split.split

.outer:                                           ; preds = %.lr.ph33
  %27 = add nsw i64 %.121.ph39, -64
  %28 = icmp sgt i64 %.121.ph39, 63
  br i1 %28, label %.lr.ph33, label %.loopexit, !llvm.loop !33

.loopexit:                                        ; preds = %11, %16, %.outer, %.preheader, %.lr.ph33.split, %2
  %.0 = phi i64 [ -1, %2 ], [ %25, %.lr.ph33.split ], [ -1, %.preheader ], [ -1, %.outer ], [ -1, %16 ], [ %.02025, %11 ]
  ret i64 %.0
}